target datalayout = "e-m:e-p270:32:32-p271:32:32-p272:64:64-i64:64-i128:128-f80:128-n8:16:32:64-S128"
target triple = "x86_64-pc-linux-gnu"

%struct.BEValue = type { i8, i32, ptr, ptr, ptr }
%struct.Expr_ = type { ptr, %union.SourceSpan, i16, %union.anon.29 }
%union.SourceSpan = type { i64 }
%union.anon.29 = type { %struct.ExprAnySwitch }
%struct.ExprAnySwitch = type { i8, %union.anon.31 }
%union.anon.31 = type { %struct.anon.32 }
%struct.anon.32 = type { ptr, %union.SourceSpan, ptr }
%struct.ExprCall = type { %union.anon.33, i32, i16, ptr, %union.anon.34 }
%union.anon.33 = type { i32 }
%union.anon.34 = type { ptr }
%struct.VHeader_ = type { i32, i32, [0 x i8] }

; Function Attrs: nounwind uwtable
define dso_local void @llvm_emit_builtin_args_types3(ptr noundef %0, ptr noundef %1, ptr noundef %2, i32 noundef %3, ptr noundef %4, ptr noundef %5, ptr noundef %6) #0 {
  %8 = alloca i32, align 4
  %9 = alloca ptr, align 8
  %10 = alloca ptr, align 8
  %11 = alloca ptr, align 8
  %12 = alloca ptr, align 8
  %13 = alloca ptr, align 8
  %14 = alloca i32, align 4
  %15 = alloca %struct.BEValue, align 8
  %16 = alloca i32, align 4
  %17 = alloca ptr, align 8
  %18 = alloca ptr, align 8
  %19 = alloca ptr, align 8
  %20 = alloca i32, align 4
  %21 = alloca ptr, align 8
  %22 = alloca ptr, align 8
  %23 = alloca ptr, align 8
  %24 = alloca ptr, align 8
  %25 = alloca i32, align 4
  %26 = alloca [3 x ptr], align 16
  %27 = alloca [3 x ptr], align 16
  %28 = alloca i32, align 4
  %29 = alloca ptr, align 8
  store ptr %0, ptr %17, align 8
  store ptr %1, ptr %18, align 8
  store ptr %2, ptr %19, align 8
  store i32 %3, ptr %20, align 4
  store ptr %4, ptr %21, align 8
  store ptr %5, ptr %22, align 8
  store ptr %6, ptr %23, align 8
  %30 = load ptr, ptr %19, align 8
  %31 = getelementptr inbounds %struct.Expr_, ptr %30, i32 0, i32 3
  %32 = getelementptr inbounds %struct.ExprCall, ptr %31, i32 0, i32 3
  %33 = load ptr, ptr %32, align 8
  store ptr %33, ptr %24, align 8
  %34 = load ptr, ptr %24, align 8
  store ptr %34, ptr %9, align 8
  %35 = load ptr, ptr %9, align 8
  %36 = icmp ne ptr %35, null
  br i1 %36, label %38, label %37

37:                                               ; preds = %7
  store i32 0, ptr %8, align 4
  br label %43

38:                                               ; preds = %7
  %39 = load ptr, ptr %9, align 8
  store ptr %39, ptr %10, align 8
  %40 = load ptr, ptr %10, align 8
  %41 = getelementptr inbounds %struct.VHeader_, ptr %40, i64 -1
  %42 = load i32, ptr %41, align 4
  store i32 %42, ptr %8, align 4
  br label %43

43:                                               ; preds = %38, %37
  %44 = load i32, ptr %8, align 4
  store i32 %44, ptr %25, align 4
  %45 = load ptr, ptr %17, align 8
  %46 = load ptr, ptr %24, align 8
  %47 = getelementptr inbounds [3 x ptr], ptr %26, i64 0, i64 0
  %48 = load i32, ptr %25, align 4
  store ptr %45, ptr %11, align 8
  store ptr %46, ptr %12, align 8
  store ptr %47, ptr %13, align 8
  store i32 %48, ptr %14, align 4
  store i32 0, ptr %16, align 4
  br label %49

49:                                               ; preds = %53, %43
  %50 = load i32, ptr %16, align 4
  %51 = load i32, ptr %14, align 4
  %52 = icmp ult i32 %50, %51
  br i1 %52, label %53, label %69

53:                                               ; preds = %49
  %54 = load ptr, ptr %11, align 8
  %55 = load ptr, ptr %12, align 8
  %56 = load i32, ptr %16, align 4
  %57 = zext i32 %56 to i64
  %58 = getelementptr inbounds ptr, ptr %55, i64 %57
  %59 = load ptr, ptr %58, align 8
  call void @llvm_emit_expr(ptr noundef %54, ptr noundef %15, ptr noundef %59) #6
  %60 = load ptr, ptr %11, align 8
  call void @llvm_value_rvalue(ptr noundef %60, ptr noundef %15) #6
  %61 = getelementptr inbounds %struct.BEValue, ptr %15, i32 0, i32 3
  %62 = load ptr, ptr %61, align 8
  %63 = load ptr, ptr %13, align 8
  %64 = load i32, ptr %16, align 4
  %65 = zext i32 %64 to i64
  %66 = getelementptr inbounds ptr, ptr %63, i64 %65
  store ptr %62, ptr %66, align 8
  %67 = load i32, ptr %16, align 4
  %68 = add i32 %67, 1
  store i32 %68, ptr %16, align 4
  br label %49, !llvm.loop !15

69:                                               ; preds = %49
  store i32 0, ptr %28, align 4
  %70 = load ptr, ptr %21, align 8
  %71 = icmp ne ptr %70, null
  br i1 %71, label %72, label %80

72:                                               ; preds = %69
  %73 = load ptr, ptr %17, align 8
  %74 = load ptr, ptr %21, align 8
  %75 = call ptr @llvm_get_type(ptr noundef %73, ptr noundef %74)
  %76 = load i32, ptr %28, align 4
  %77 = add i32 %76, 1
  store i32 %77, ptr %28, align 4
  %78 = zext i32 %76 to i64
  %79 = getelementptr inbounds [3 x ptr], ptr %27, i64 0, i64 %78
  store ptr %75, ptr %79, align 8
  br label %80

80:                                               ; preds = %72, %69
  %81 = load ptr, ptr %22, align 8
  %82 = icmp ne ptr %81, null
  br i1 %82, label %83, label %91

83:                                               ; preds = %80
  %84 = load ptr, ptr %17, align 8
  %85 = load ptr, ptr %22, align 8
  %86 = call ptr @llvm_get_type(ptr noundef %84, ptr noundef %85)
  %87 = load i32, ptr %28, align 4
  %88 = add i32 %87, 1
  store i32 %88, ptr %28, align 4
  %89 = zext i32 %87 to i64
  %90 = getelementptr inbounds [3 x ptr], ptr %27, i64 0, i64 %89
  store ptr %86, ptr %90, align 8
  br label %91

91:                                               ; preds = %83, %80
  %92 = load ptr, ptr %23, align 8
  %93 = icmp ne ptr %92, null
  br i1 %93, label %94, label %102

94:                                               ; preds = %91
  %95 = load ptr, ptr %17, align 8
  %96 = load ptr, ptr %23, align 8
  %97 = call ptr @llvm_get_type(ptr noundef %95, ptr noundef %96)
  %98 = load i32, ptr %28, align 4
  %99 = add i32 %98, 1
  store i32 %99, ptr %28, align 4
  %100 = zext i32 %98 to i64
  %101 = getelementptr inbounds [3 x ptr], ptr %27, i64 0, i64 %100
  store ptr %97, ptr %101, align 8
  br label %102

102:                                              ; preds = %94, %91
  %103 = load ptr, ptr %17, align 8
  %104 = load i32, ptr %20, align 4
  %105 = getelementptr inbounds [3 x ptr], ptr %27, i64 0, i64 0
  %106 = load i32, ptr %28, align 4
  %107 = getelementptr inbounds [3 x ptr], ptr %26, i64 0, i64 0
  %108 = load i32, ptr %25, align 4
  %109 = call ptr @llvm_emit_call_intrinsic(ptr noundef %103, i32 noundef %104, ptr noundef %105, i32 noundef %106, ptr noundef %107, i32 noundef %108)
  store ptr %109, ptr %29, align 8
  %110 = load ptr, ptr %18, align 8
  %111 = load ptr, ptr %29, align 8
  %112 = load ptr, ptr %19, align 8
  %113 = getelementptr inbounds %struct.Expr_, ptr %112, i32 0, i32 0
  %114 = load ptr, ptr %113, align 8
  call void @llvm_value_set(ptr noundef %110, ptr noundef %111, ptr noundef %114)
  ret void
}