; Function Attrs: nounwind uwtable
define dso_local void @llvm_emit_builtin_args_types3(ptr noundef %0, ptr noundef %1, ptr nocapture noundef readonly %2, i32 noundef %3, ptr noundef %4, ptr noundef %5, ptr noundef %6) local_unnamed_addr #0 {
  %8 = alloca %struct.BEValue, align 8
  %9 = alloca [3 x ptr], align 16
  %10 = alloca [3 x ptr], align 16
  %11 = getelementptr inbounds i8, ptr %2, i64 40
  %12 = load ptr, ptr %11, align 8
  %.not = icmp eq ptr %12, null
  br i1 %.not, label %._crit_edge, label %13

13:                                               ; preds = %7
  %14 = getelementptr inbounds i8, ptr %12, i64 -8
  %15 = load i32, ptr %14, align 4
  %.not46 = icmp eq i32 %15, 0
  br i1 %.not46, label %._crit_edge, label %.lr.ph

.lr.ph:                                           ; preds = %13
  %16 = getelementptr inbounds i8, ptr %8, i64 16
  %wide.trip.count = zext i32 %15 to i64
  br label %17

17:                                               ; preds = %.lr.ph, %17
  %indvars.iv = phi i64 [ 0, %.lr.ph ], [ %indvars.iv.next, %17 ]
  %18 = getelementptr inbounds ptr, ptr %12, i64 %indvars.iv
  %19 = load ptr, ptr %18, align 8
  call void @llvm_emit_expr(ptr noundef %0, ptr noundef nonnull %8, ptr noundef %19) #8
  call void @llvm_value_rvalue(ptr noundef %0, ptr noundef nonnull %8) #8
  %20 = load ptr, ptr %16, align 8
  %21 = getelementptr inbounds ptr, ptr %9, i64 %indvars.iv
  store ptr %20, ptr %21, align 8
  %indvars.iv.next = add nuw nsw i64 %indvars.iv, 1
  %exitcond.not = icmp eq i64 %indvars.iv.next, %wide.trip.count
  br i1 %exitcond.not, label %._crit_edge, label %17, !llvm.loop !11

._crit_edge:                                      ; preds = %17, %7, %13
  %.050 = phi i32 [ 0, %13 ], [ 0, %7 ], [ %15, %17 ]
  %.not42 = icmp eq ptr %4, null
  br i1 %.not42, label %24, label %22

22:                                               ; preds = %._crit_edge
  %23 = call ptr @llvm_get_type(ptr noundef %0, ptr noundef nonnull %4) #8
  store ptr %23, ptr %10, align 16
  br label %24

24:                                               ; preds = %22, %._crit_edge
  %.036 = phi i32 [ 1, %22 ], [ 0, %._crit_edge ]
  %.not43 = icmp eq ptr %5, null
  br i1 %.not43, label %30, label %25

25:                                               ; preds = %24
  %26 = call ptr @llvm_get_type(ptr noundef %0, ptr noundef nonnull %5) #8
  %27 = add nuw nsw i32 %.036, 1
  %28 = zext nneg i32 %.036 to i64
  %29 = getelementptr inbounds [3 x ptr], ptr %10, i64 0, i64 %28
  store ptr %26, ptr %29, align 8
  br label %30

30:                                               ; preds = %25, %24
  %.1 = phi i32 [ %27, %25 ], [ %.036, %24 ]
  %.not44 = icmp eq ptr %6, null
  br i1 %.not44, label %36, label %31

31:                                               ; preds = %30
  %32 = call ptr @llvm_get_type(ptr noundef %0, ptr noundef nonnull %6) #8
  %33 = add nuw nsw i32 %.1, 1
  %34 = zext nneg i32 %.1 to i64
  %35 = getelementptr inbounds [3 x ptr], ptr %10, i64 0, i64 %34
  store ptr %32, ptr %35, align 8
  br label %36

36:                                               ; preds = %31, %30
  %.2 = phi i32 [ %33, %31 ], [ %.1, %30 ]
  %37 = call ptr @llvm_emit_call_intrinsic(ptr noundef %0, i32 noundef %3, ptr noundef nonnull %10, i32 noundef %.2, ptr noundef nonnull %9, i32 noundef %.050) #8
  %38 = load ptr, ptr %2, align 8
  call void @llvm_value_set(ptr noundef %1, ptr noundef %37, ptr noundef %38) #8
  ret void
}